target datalayout = "e-m:e-p270:32:32-p271:32:32-p272:64:64-i64:64-i128:128-f80:128-n8:16:32:64-S128"
target triple = "x86_64-pc-linux-gnu"

@.str.20 = private unnamed_addr constant [38 x i8] c"wrong number of arguments to 'insert'\00", align 1

; Function Attrs: mustprogress uwtable
define internal noundef i32 @_ZL7tinsertP9lua_State(ptr noundef %0) #0 {
  %2 = alloca ptr, align 8
  %3 = alloca i32, align 4
  %4 = alloca i32, align 4
  store ptr %0, ptr %2, align 8, !tbaa !4
  %5 = load ptr, ptr %2, align 8, !tbaa !4
  call void @_Z14luaL_checktypeP9lua_Stateii(ptr noundef %5, i32 noundef 1, i32 noundef 6)
  call void @llvm.lifetime.start.p0(i64 4, ptr %3) #7
  %6 = load ptr, ptr %2, align 8, !tbaa !4
  %7 = call noundef i32 @_Z10lua_objlenP9lua_Statei(ptr noundef %6, i32 noundef 1)
  store i32 %7, ptr %3, align 4, !tbaa !23
  call void @llvm.lifetime.start.p0(i64 4, ptr %4) #7
  %8 = load ptr, ptr %2, align 8, !tbaa !4
  %9 = call noundef i32 @_Z10lua_gettopP9lua_State(ptr noundef %8)
  switch i32 %9, label %29 [
    i32 2, label %10
    i32 3, label %13
  ]

10:                                               ; preds = %1
  %11 = load i32, ptr %3, align 4, !tbaa !23
  %12 = add nsw i32 %11, 1
  store i32 %12, ptr %4, align 4, !tbaa !23
  br label %31

13:                                               ; preds = %1
  %14 = load ptr, ptr %2, align 8, !tbaa !4
  %15 = call noundef i32 @_Z17luaL_checkintegerP9lua_Statei(ptr noundef %14, i32 noundef 2)
  store i32 %15, ptr %4, align 4, !tbaa !23
  %16 = load i32, ptr %4, align 4, !tbaa !23
  %17 = icmp sle i32 1, %16
  br i1 %17, label %18, label %28

18:                                               ; preds = %13
  %19 = load i32, ptr %4, align 4, !tbaa !23
  %20 = load i32, ptr %3, align 4, !tbaa !23
  %21 = icmp sle i32 %19, %20
  br i1 %21, label %22, label %28

22:                                               ; preds = %18
  %23 = load ptr, ptr %2, align 8, !tbaa !4
  %24 = load i32, ptr %4, align 4, !tbaa !23
  %25 = load i32, ptr %3, align 4, !tbaa !23
  %26 = load i32, ptr %4, align 4, !tbaa !23
  %27 = add nsw i32 %26, 1
  call void @_ZL12moveelementsP9lua_Stateiiiii(ptr noundef %23, i32 noundef 1, i32 noundef 1, i32 noundef %24, i32 noundef %25, i32 noundef %27)
  br label %28

28:                                               ; preds = %22, %18, %13
  br label %31

29:                                               ; preds = %1
  %30 = load ptr, ptr %2, align 8, !tbaa !4
  call void (ptr, ptr, ...) @_Z11luaL_errorLP9lua_StatePKcz(ptr noundef %30, ptr noundef @.str.20) #8
  unreachable

31:                                               ; preds = %28, %10
  %32 = load ptr, ptr %2, align 8, !tbaa !4
  %33 = load i32, ptr %4, align 4, !tbaa !23
  call void @_Z11lua_rawsetiP9lua_Stateii(ptr noundef %32, i32 noundef 1, i32 noundef %33)
  call void @llvm.lifetime.end.p0(i64 4, ptr %4) #7
  call void @llvm.lifetime.end.p0(i64 4, ptr %3) #7
  ret i32 0
}