; Function Attrs: mustprogress uwtable
define internal noundef i32 @_ZL7tinsertP9lua_State(ptr noundef %0) #0 {
  tail call void @_Z14luaL_checktypeP9lua_Stateii(ptr noundef %0, i32 noundef 1, i32 noundef 6)
  %2 = tail call noundef i32 @_Z10lua_objlenP9lua_Statei(ptr noundef %0, i32 noundef 1)
  %3 = tail call noundef i32 @_Z10lua_gettopP9lua_State(ptr noundef %0)
  switch i32 %3, label %11 [
    i32 2, label %4
    i32 3, label %6
  ]

4:                                                ; preds = %1
  %5 = add nsw i32 %2, 1
  br label %12

6:                                                ; preds = %1
  %7 = tail call noundef i32 @_Z17luaL_checkintegerP9lua_Statei(ptr noundef %0, i32 noundef 2)
  %8 = icmp slt i32 %7, 1
  %.not = icmp sgt i32 %7, %2
  %or.cond = or i1 %8, %.not
  br i1 %or.cond, label %12, label %9

9:                                                ; preds = %6
  %10 = add nuw nsw i32 %7, 1
  tail call fastcc void @_ZL12moveelementsP9lua_Stateiiiii(ptr noundef %0, i32 noundef 1, i32 noundef %7, i32 noundef %2, i32 noundef %10)
  br label %12

11:                                               ; preds = %1
  tail call void (ptr, ptr, ...) @_Z11luaL_errorLP9lua_StatePKcz(ptr noundef %0, ptr noundef nonnull @.str.20) #6
  unreachable

12:                                               ; preds = %6, %9, %4
  %.0 = phi i32 [ %7, %9 ], [ %7, %6 ], [ %5, %4 ]
  tail call void @_Z11lua_rawsetiP9lua_Stateii(ptr noundef %0, i32 noundef 1, i32 noundef %.0)
  ret i32 0
}